; Function Attrs: nounwind uwtable
define ptr @evhttp_accept_socket_with_handle(ptr noundef %0, i32 noundef %1) local_unnamed_addr #0 {
  %3 = getelementptr inbounds nuw i8, ptr %0, i64 264
  %4 = load ptr, ptr %3, align 8
  %5 = tail call ptr @evconnlistener_new(ptr noundef %4, ptr noundef null, ptr noundef null, i32 noundef 14, i32 noundef 0, i32 noundef %1) #18
  %.not = icmp eq ptr %5, null
  br i1 %.not, label %16, label %6

6:                                                ; preds = %2
  %7 = tail call ptr @event_mm_malloc_(i64 noundef 48) #18
  %8 = icmp eq ptr %7, null
  br i1 %8, label %15, label %evhttp_bind_listener.exit

evhttp_bind_listener.exit:                        ; preds = %6
  %9 = getelementptr inbounds nuw i8, ptr %7, i64 40
  store ptr %5, ptr %9, align 8
  %10 = getelementptr inbounds nuw i8, ptr %7, i64 24
  store ptr null, ptr %10, align 8
  %11 = getelementptr inbounds nuw i8, ptr %7, i64 16
  store ptr %0, ptr %11, align 8
  store ptr null, ptr %7, align 8
  %12 = getelementptr inbounds nuw i8, ptr %0, i64 24
  %13 = load ptr, ptr %12, align 8
  %14 = getelementptr inbounds nuw i8, ptr %7, i64 8
  store ptr %13, ptr %14, align 8
  store ptr %7, ptr %13, align 8
  store ptr %7, ptr %12, align 8
  tail call void @evconnlistener_set_cb(ptr noundef nonnull %5, ptr noundef nonnull @accept_socket_cb, ptr noundef nonnull %7) #18
  br label %16

15:                                               ; preds = %6
  tail call void @evconnlistener_free(ptr noundef nonnull %5) #18
  br label %16

16:                                               ; preds = %evhttp_bind_listener.exit, %2, %15
  %.0 = phi ptr [ null, %15 ], [ null, %2 ], [ %7, %evhttp_bind_listener.exit ]
  ret ptr %.0
}